ARM GAS  C:\Users\ULTIMA~1\AppData\Local\Temp\ccQnUapc.s 			page 1


   1              		.cpu cortex-m3
   2              		.arch armv7-m
   3              		.fpu softvfp
   4              		.eabi_attribute 20, 1
   5              		.eabi_attribute 21, 1
   6              		.eabi_attribute 23, 3
   7              		.eabi_attribute 24, 1
   8              		.eabi_attribute 25, 1
   9              		.eabi_attribute 26, 1
  10              		.eabi_attribute 30, 6
  11              		.eabi_attribute 34, 1
  12              		.eabi_attribute 18, 4
  13              		.file	"fsm_pedestrian.c"
  14              		.text
  15              	.Ltext0:
  16              		.cfi_sections	.debug_frame
  17              		.global	PWM
  18              		.section	.bss.PWM,"aw",%nobits
  19              		.align	2
  22              	PWM:
  23 0000 00000000 		.space	4
  24              		.global	__aeabi_i2d
  25              		.global	__aeabi_ddiv
  26              		.global	__aeabi_dsub
  27              		.global	__aeabi_d2iz
  28              		.section	.text.fsm_pedestrian_run,"ax",%progbits
  29              		.align	1
  30              		.global	fsm_pedestrian_run
  31              		.syntax unified
  32              		.thumb
  33              		.thumb_func
  35              	fsm_pedestrian_run:
  36              	.LFB68:
  37              		.file 1 "./Core/Src/fsm_pedestrian.c"
   1:./Core/Src/fsm_pedestrian.c **** 
   2:./Core/Src/fsm_pedestrian.c **** #include "fsm_pedestrian.h"
   3:./Core/Src/fsm_pedestrian.c **** 
   4:./Core/Src/fsm_pedestrian.c **** int PWM = 0;
   5:./Core/Src/fsm_pedestrian.c **** 
   6:./Core/Src/fsm_pedestrian.c **** void fsm_pedestrian_run(){
  38              		.loc 1 6 26
  39              		.cfi_startproc
  40              		@ args = 0, pretend = 0, frame = 0
  41              		@ frame_needed = 1, uses_anonymous_args = 0
  42 0000 B0B5     		push	{r4, r5, r7, lr}
  43              		.cfi_def_cfa_offset 16
  44              		.cfi_offset 4, -16
  45              		.cfi_offset 5, -12
  46              		.cfi_offset 7, -8
  47              		.cfi_offset 14, -4
  48 0002 00AF     		add	r7, sp, #0
  49              		.cfi_def_cfa_register 7
   7:./Core/Src/fsm_pedestrian.c **** 	switch(pedestrianStatus) {
  50              		.loc 1 7 2
  51 0004 5A4B     		ldr	r3, .L25
  52 0006 1B68     		ldr	r3, [r3]
  53 0008 013B     		subs	r3, r3, #1
ARM GAS  C:\Users\ULTIMA~1\AppData\Local\Temp\ccQnUapc.s 			page 2


  54 000a 032B     		cmp	r3, #3
  55 000c 00F2A680 		bhi	.L20
  56 0010 01A2     		adr	r2, .L4
  57 0012 52F823F0 		ldr	pc, [r2, r3, lsl #2]
  58 0016 00BF     		.p2align 2
  59              	.L4:
  60 0018 29000000 		.word	.L7+1
  61 001c 35000000 		.word	.L6+1
  62 0020 81000000 		.word	.L5+1
  63 0024 B5000000 		.word	.L3+1
  64              		.p2align 1
  65              	.L7:
   8:./Core/Src/fsm_pedestrian.c **** 		case INIT:
   9:./Core/Src/fsm_pedestrian.c **** 			clearPedestrian();
  66              		.loc 1 9 4
  67 0028 FFF7FEFF 		bl	clearPedestrian
  10:./Core/Src/fsm_pedestrian.c **** 			pedestrianStatus = PED_NONE;
  68              		.loc 1 10 21
  69 002c 504B     		ldr	r3, .L25
  70 002e 0222     		movs	r2, #2
  71 0030 1A60     		str	r2, [r3]
  11:./Core/Src/fsm_pedestrian.c **** 			break;
  72              		.loc 1 11 4
  73 0032 9AE0     		b	.L8
  74              	.L6:
  12:./Core/Src/fsm_pedestrian.c **** 		case PED_NONE:
  13:./Core/Src/fsm_pedestrian.c **** 			if(isButtonPressed(0)){
  75              		.loc 1 13 7
  76 0034 0020     		movs	r0, #0
  77 0036 FFF7FEFF 		bl	isButtonPressed
  78 003a 0346     		mov	r3, r0
  79              		.loc 1 13 6
  80 003c 002B     		cmp	r3, #0
  81 003e 00F08F80 		beq	.L21
  14:./Core/Src/fsm_pedestrian.c **** 				if(status == AUTO_RED_GREEN || status == AUTO_RED_YELLOW){
  82              		.loc 1 14 15
  83 0042 4C4B     		ldr	r3, .L25+4
  84 0044 1B68     		ldr	r3, [r3]
  85              		.loc 1 14 7
  86 0046 022B     		cmp	r3, #2
  87 0048 03D0     		beq	.L10
  88              		.loc 1 14 43 discriminator 1
  89 004a 4A4B     		ldr	r3, .L25+4
  90 004c 1B68     		ldr	r3, [r3]
  91              		.loc 1 14 33 discriminator 1
  92 004e 032B     		cmp	r3, #3
  93 0050 08D1     		bne	.L11
  94              	.L10:
  15:./Core/Src/fsm_pedestrian.c **** 					pedestrianStatus = PED_GREEN;
  95              		.loc 1 15 23
  96 0052 474B     		ldr	r3, .L25
  97 0054 0422     		movs	r2, #4
  98 0056 1A60     		str	r2, [r3]
  16:./Core/Src/fsm_pedestrian.c **** 					setPedestrianGreen();
  99              		.loc 1 16 6
 100 0058 FFF7FEFF 		bl	setPedestrianGreen
  17:./Core/Src/fsm_pedestrian.c **** 					setTimer2(250);
ARM GAS  C:\Users\ULTIMA~1\AppData\Local\Temp\ccQnUapc.s 			page 3


 101              		.loc 1 17 6
 102 005c FA20     		movs	r0, #250
 103 005e FFF7FEFF 		bl	setTimer2
  18:./Core/Src/fsm_pedestrian.c **** 				}
  19:./Core/Src/fsm_pedestrian.c **** 				else if (status == AUTO_GREEN_RED || status == AUTO_YELLOW_RED){
  20:./Core/Src/fsm_pedestrian.c **** 					pedestrianStatus = PED_RED;
  21:./Core/Src/fsm_pedestrian.c **** 					setPedestrianRed();
  22:./Core/Src/fsm_pedestrian.c **** 				}
  23:./Core/Src/fsm_pedestrian.c **** 			}
  24:./Core/Src/fsm_pedestrian.c **** 			break;
 104              		.loc 1 24 4
 105 0062 7DE0     		b	.L21
 106              	.L11:
  19:./Core/Src/fsm_pedestrian.c **** 					pedestrianStatus = PED_RED;
 107              		.loc 1 19 21
 108 0064 434B     		ldr	r3, .L25+4
 109 0066 1B68     		ldr	r3, [r3]
  19:./Core/Src/fsm_pedestrian.c **** 					pedestrianStatus = PED_RED;
 110              		.loc 1 19 13
 111 0068 042B     		cmp	r3, #4
 112 006a 03D0     		beq	.L12
  19:./Core/Src/fsm_pedestrian.c **** 					pedestrianStatus = PED_RED;
 113              		.loc 1 19 49 discriminator 1
 114 006c 414B     		ldr	r3, .L25+4
 115 006e 1B68     		ldr	r3, [r3]
  19:./Core/Src/fsm_pedestrian.c **** 					pedestrianStatus = PED_RED;
 116              		.loc 1 19 39 discriminator 1
 117 0070 052B     		cmp	r3, #5
 118 0072 75D1     		bne	.L21
 119              	.L12:
  20:./Core/Src/fsm_pedestrian.c **** 					setPedestrianRed();
 120              		.loc 1 20 23
 121 0074 3E4B     		ldr	r3, .L25
 122 0076 0322     		movs	r2, #3
 123 0078 1A60     		str	r2, [r3]
  21:./Core/Src/fsm_pedestrian.c **** 				}
 124              		.loc 1 21 6
 125 007a FFF7FEFF 		bl	setPedestrianRed
 126              		.loc 1 24 4
 127 007e 6FE0     		b	.L21
 128              	.L5:
  25:./Core/Src/fsm_pedestrian.c **** 		case PED_RED:
  26:./Core/Src/fsm_pedestrian.c **** 			if(timer2_flag){
 129              		.loc 1 26 7
 130 0080 3D4B     		ldr	r3, .L25+8
 131 0082 1B68     		ldr	r3, [r3]
 132              		.loc 1 26 6
 133 0084 002B     		cmp	r3, #0
 134 0086 08D0     		beq	.L13
  27:./Core/Src/fsm_pedestrian.c **** 				timer2_flag = 0;
 135              		.loc 1 27 17
 136 0088 3B4B     		ldr	r3, .L25+8
 137 008a 0022     		movs	r2, #0
 138 008c 1A60     		str	r2, [r3]
  28:./Core/Src/fsm_pedestrian.c **** 				pedestrianStatus = PED_NONE;
 139              		.loc 1 28 22
 140 008e 384B     		ldr	r3, .L25
ARM GAS  C:\Users\ULTIMA~1\AppData\Local\Temp\ccQnUapc.s 			page 4


 141 0090 0222     		movs	r2, #2
 142 0092 1A60     		str	r2, [r3]
  29:./Core/Src/fsm_pedestrian.c **** 				clearPedestrian();
 143              		.loc 1 29 5
 144 0094 FFF7FEFF 		bl	clearPedestrian
  30:./Core/Src/fsm_pedestrian.c **** 				break;
 145              		.loc 1 30 5
 146 0098 67E0     		b	.L8
 147              	.L13:
  31:./Core/Src/fsm_pedestrian.c **** 			}
  32:./Core/Src/fsm_pedestrian.c **** 			else if(status == AUTO_RED_GREEN){
 148              		.loc 1 32 19
 149 009a 364B     		ldr	r3, .L25+4
 150 009c 1B68     		ldr	r3, [r3]
 151              		.loc 1 32 11
 152 009e 022B     		cmp	r3, #2
 153 00a0 60D1     		bne	.L22
  33:./Core/Src/fsm_pedestrian.c **** 				pedestrianStatus = PED_GREEN;
 154              		.loc 1 33 22
 155 00a2 334B     		ldr	r3, .L25
 156 00a4 0422     		movs	r2, #4
 157 00a6 1A60     		str	r2, [r3]
  34:./Core/Src/fsm_pedestrian.c **** 				setPedestrianGreen();
 158              		.loc 1 34 5
 159 00a8 FFF7FEFF 		bl	setPedestrianGreen
  35:./Core/Src/fsm_pedestrian.c **** 				setTimer2(250);
 160              		.loc 1 35 5
 161 00ac FA20     		movs	r0, #250
 162 00ae FFF7FEFF 		bl	setTimer2
  36:./Core/Src/fsm_pedestrian.c **** 			}
  37:./Core/Src/fsm_pedestrian.c **** 			break;
 163              		.loc 1 37 4
 164 00b2 57E0     		b	.L22
 165              	.L3:
  38:./Core/Src/fsm_pedestrian.c **** 		case PED_GREEN:
  39:./Core/Src/fsm_pedestrian.c **** 			if(timer2_flag){
 166              		.loc 1 39 7
 167 00b4 304B     		ldr	r3, .L25+8
 168 00b6 1B68     		ldr	r3, [r3]
 169              		.loc 1 39 6
 170 00b8 002B     		cmp	r3, #0
 171 00ba 39D0     		beq	.L15
  40:./Core/Src/fsm_pedestrian.c **** 				if(PWM == 0){
 172              		.loc 1 40 12
 173 00bc 2F4B     		ldr	r3, .L25+12
 174 00be 1B68     		ldr	r3, [r3]
 175              		.loc 1 40 7
 176 00c0 002B     		cmp	r3, #0
 177 00c2 2AD1     		bne	.L16
  41:./Core/Src/fsm_pedestrian.c **** 					PWM = 63-63*counter/(double)max_red1;
 178              		.loc 1 41 17
 179 00c4 2E4B     		ldr	r3, .L25+16
 180 00c6 1A68     		ldr	r2, [r3]
 181 00c8 1346     		mov	r3, r2
 182 00ca 9B01     		lsls	r3, r3, #6
 183 00cc 9B1A     		subs	r3, r3, r2
 184              		.loc 1 41 25
ARM GAS  C:\Users\ULTIMA~1\AppData\Local\Temp\ccQnUapc.s 			page 5


 185 00ce 1846     		mov	r0, r3
 186 00d0 FFF7FEFF 		bl	__aeabi_i2d
 187 00d4 0446     		mov	r4, r0
 188 00d6 0D46     		mov	r5, r1
 189              		.loc 1 41 26
 190 00d8 2A4B     		ldr	r3, .L25+20
 191 00da 1B68     		ldr	r3, [r3]
 192 00dc 1846     		mov	r0, r3
 193 00de FFF7FEFF 		bl	__aeabi_i2d
 194 00e2 0246     		mov	r2, r0
 195 00e4 0B46     		mov	r3, r1
 196              		.loc 1 41 25
 197 00e6 2046     		mov	r0, r4
 198 00e8 2946     		mov	r1, r5
 199 00ea FFF7FEFF 		bl	__aeabi_ddiv
 200 00ee 0246     		mov	r2, r0
 201 00f0 0B46     		mov	r3, r1
 202              		.loc 1 41 14
 203 00f2 4FF00000 		mov	r0, #0
 204 00f6 2449     		ldr	r1, .L25+24
 205 00f8 FFF7FEFF 		bl	__aeabi_dsub
 206 00fc 0246     		mov	r2, r0
 207 00fe 0B46     		mov	r3, r1
 208              		.loc 1 41 10
 209 0100 1046     		mov	r0, r2
 210 0102 1946     		mov	r1, r3
 211 0104 FFF7FEFF 		bl	__aeabi_d2iz
 212 0108 0346     		mov	r3, r0
 213 010a 1C4A     		ldr	r2, .L25+12
 214 010c 1360     		str	r3, [r2]
  42:./Core/Src/fsm_pedestrian.c **** 					__HAL_TIM_SetCompare(&htim3, TIM_CHANNEL_1,PWM);
 215              		.loc 1 42 6
 216 010e 1B4B     		ldr	r3, .L25+12
 217 0110 1A68     		ldr	r2, [r3]
 218 0112 1E4B     		ldr	r3, .L25+28
 219 0114 1B68     		ldr	r3, [r3]
 220 0116 5A63     		str	r2, [r3, #52]
 221 0118 07E0     		b	.L17
 222              	.L16:
  43:./Core/Src/fsm_pedestrian.c **** 				} else {
  44:./Core/Src/fsm_pedestrian.c **** 					PWM = 0;
 223              		.loc 1 44 10
 224 011a 184B     		ldr	r3, .L25+12
 225 011c 0022     		movs	r2, #0
 226 011e 1A60     		str	r2, [r3]
  45:./Core/Src/fsm_pedestrian.c **** 					__HAL_TIM_SetCompare(&htim3, TIM_CHANNEL_1,PWM);
 227              		.loc 1 45 6
 228 0120 164B     		ldr	r3, .L25+12
 229 0122 1A68     		ldr	r2, [r3]
 230 0124 194B     		ldr	r3, .L25+28
 231 0126 1B68     		ldr	r3, [r3]
 232 0128 5A63     		str	r2, [r3, #52]
 233              	.L17:
  46:./Core/Src/fsm_pedestrian.c **** 				}
  47:./Core/Src/fsm_pedestrian.c **** 				setTimer2(250);
 234              		.loc 1 47 5
 235 012a FA20     		movs	r0, #250
ARM GAS  C:\Users\ULTIMA~1\AppData\Local\Temp\ccQnUapc.s 			page 6


 236 012c FFF7FEFF 		bl	setTimer2
 237              	.L15:
  48:./Core/Src/fsm_pedestrian.c **** 			}
  49:./Core/Src/fsm_pedestrian.c **** 			if(status == AUTO_GREEN_RED || status == AUTO_YELLOW_RED){
 238              		.loc 1 49 14
 239 0130 104B     		ldr	r3, .L25+4
 240 0132 1B68     		ldr	r3, [r3]
 241              		.loc 1 49 6
 242 0134 042B     		cmp	r3, #4
 243 0136 03D0     		beq	.L18
 244              		.loc 1 49 42 discriminator 1
 245 0138 0E4B     		ldr	r3, .L25+4
 246 013a 1B68     		ldr	r3, [r3]
 247              		.loc 1 49 32 discriminator 1
 248 013c 052B     		cmp	r3, #5
 249 013e 13D1     		bne	.L23
 250              	.L18:
  50:./Core/Src/fsm_pedestrian.c **** 				pedestrianStatus = PED_RED;
 251              		.loc 1 50 22
 252 0140 0B4B     		ldr	r3, .L25
 253 0142 0322     		movs	r2, #3
 254 0144 1A60     		str	r2, [r3]
  51:./Core/Src/fsm_pedestrian.c **** 				setTimer2(2000);
 255              		.loc 1 51 5
 256 0146 4FF4FA60 		mov	r0, #2000
 257 014a FFF7FEFF 		bl	setTimer2
  52:./Core/Src/fsm_pedestrian.c **** 				setPedestrianRed();
 258              		.loc 1 52 5
 259 014e FFF7FEFF 		bl	setPedestrianRed
  53:./Core/Src/fsm_pedestrian.c **** 				__HAL_TIM_SetCompare(&htim3, TIM_CHANNEL_1,0);
 260              		.loc 1 53 5
 261 0152 0E4B     		ldr	r3, .L25+28
 262 0154 1B68     		ldr	r3, [r3]
 263 0156 0022     		movs	r2, #0
 264 0158 5A63     		str	r2, [r3, #52]
  54:./Core/Src/fsm_pedestrian.c **** 			}
  55:./Core/Src/fsm_pedestrian.c **** 			break;
 265              		.loc 1 55 4
 266 015a 05E0     		b	.L23
 267              	.L20:
  56:./Core/Src/fsm_pedestrian.c **** 		default:
  57:./Core/Src/fsm_pedestrian.c **** 			break;
 268              		.loc 1 57 4
 269 015c 00BF     		nop
 270 015e 04E0     		b	.L24
 271              	.L21:
  24:./Core/Src/fsm_pedestrian.c **** 		case PED_RED:
 272              		.loc 1 24 4
 273 0160 00BF     		nop
 274 0162 02E0     		b	.L24
 275              	.L22:
  37:./Core/Src/fsm_pedestrian.c **** 		case PED_GREEN:
 276              		.loc 1 37 4
 277 0164 00BF     		nop
 278 0166 00E0     		b	.L24
 279              	.L23:
  55:./Core/Src/fsm_pedestrian.c **** 		default:
ARM GAS  C:\Users\ULTIMA~1\AppData\Local\Temp\ccQnUapc.s 			page 7


 280              		.loc 1 55 4
 281 0168 00BF     		nop
 282              	.L8:
 283              	.L24:
  58:./Core/Src/fsm_pedestrian.c **** 	}
  59:./Core/Src/fsm_pedestrian.c **** }
 284              		.loc 1 59 1
 285 016a 00BF     		nop
 286 016c B0BD     		pop	{r4, r5, r7, pc}
 287              	.L26:
 288 016e 00BF     		.align	2
 289              	.L25:
 290 0170 00000000 		.word	pedestrianStatus
 291 0174 00000000 		.word	status
 292 0178 00000000 		.word	timer2_flag
 293 017c 00000000 		.word	PWM
 294 0180 00000000 		.word	counter
 295 0184 00000000 		.word	max_red1
 296 0188 00804F40 		.word	1078951936
 297 018c 00000000 		.word	htim3
 298              		.cfi_endproc
 299              	.LFE68:
 301              		.text
 302              	.Letext0:
 303              		.file 2 "c:\\st\\stm32cubeide_1.10.1\\stm32cubeide\\plugins\\com.st.stm32cube.ide.mcu.externaltool
 304              		.file 3 "c:\\st\\stm32cubeide_1.10.1\\stm32cubeide\\plugins\\com.st.stm32cube.ide.mcu.externaltool
 305              		.file 4 "Drivers/CMSIS/Device/ST/STM32F1xx/Include/stm32f103xb.h"
 306              		.file 5 "Drivers/STM32F1xx_HAL_Driver/Inc/stm32f1xx_hal_def.h"
 307              		.file 6 "Drivers/STM32F1xx_HAL_Driver/Inc/stm32f1xx_hal_dma.h"
 308              		.file 7 "Drivers/STM32F1xx_HAL_Driver/Inc/stm32f1xx_hal_tim.h"
 309              		.file 8 "Core/Inc/main.h"
 310              		.file 9 "Core/Inc/timer.h"
 311              		.file 10 "Core/Inc/global.h"
 312              		.file 11 "Core/Inc/traffic.h"
 313              		.file 12 "Core/Inc/button.h"
ARM GAS  C:\Users\ULTIMA~1\AppData\Local\Temp\ccQnUapc.s 			page 8

