ARM GAS  C:\Users\ULTIMA~1\AppData\Local\Temp\ccqGTINA.s 			page 1


   1              		.cpu cortex-m3
   2              		.arch armv7-m
   3              		.fpu softvfp
   4              		.eabi_attribute 20, 1
   5              		.eabi_attribute 21, 1
   6              		.eabi_attribute 23, 3
   7              		.eabi_attribute 24, 1
   8              		.eabi_attribute 25, 1
   9              		.eabi_attribute 26, 1
  10              		.eabi_attribute 30, 6
  11              		.eabi_attribute 34, 1
  12              		.eabi_attribute 18, 4
  13              		.file	"fsm_tuning.c"
  14              		.text
  15              	.Ltext0:
  16              		.cfi_sections	.debug_frame
  17              		.section	.text.fsm_tuning_run,"ax",%progbits
  18              		.align	1
  19              		.global	fsm_tuning_run
  20              		.syntax unified
  21              		.thumb
  22              		.thumb_func
  24              	fsm_tuning_run:
  25              	.LFB68:
  26              		.file 1 "./Core/Src/fsm_tuning.c"
   1:./Core/Src/fsm_tuning.c **** 
   2:./Core/Src/fsm_tuning.c **** #include "fsm_tuning.h"
   3:./Core/Src/fsm_tuning.c **** 
   4:./Core/Src/fsm_tuning.c **** void fsm_tuning_run(){
  27              		.loc 1 4 22
  28              		.cfi_startproc
  29              		@ args = 0, pretend = 0, frame = 0
  30              		@ frame_needed = 1, uses_anonymous_args = 0
  31 0000 80B5     		push	{r7, lr}
  32              		.cfi_def_cfa_offset 8
  33              		.cfi_offset 7, -8
  34              		.cfi_offset 14, -4
  35 0002 00AF     		add	r7, sp, #0
  36              		.cfi_def_cfa_register 7
   5:./Core/Src/fsm_tuning.c **** 	switch(status){
  37              		.loc 1 5 2
  38 0004 AE4B     		ldr	r3, .L49
  39 0006 1B68     		ldr	r3, [r3]
  40 0008 153B     		subs	r3, r3, #21
  41 000a 052B     		cmp	r3, #5
  42 000c 00F23082 		bhi	.L41
  43 0010 01A2     		adr	r2, .L4
  44 0012 52F823F0 		ldr	pc, [r2, r3, lsl #2]
  45 0016 00BF     		.p2align 2
  46              	.L4:
  47 0018 31000000 		.word	.L9+1
  48 001c DF000000 		.word	.L8+1
  49 0020 8D010000 		.word	.L7+1
  50 0024 3F020000 		.word	.L6+1
  51 0028 11030000 		.word	.L5+1
  52 002c C1030000 		.word	.L3+1
  53              		.p2align 1
ARM GAS  C:\Users\ULTIMA~1\AppData\Local\Temp\ccqGTINA.s 			page 2


  54              	.L9:
   6:./Core/Src/fsm_tuning.c **** 	case TUNING_RED1:
   7:./Core/Src/fsm_tuning.c **** 
   8:./Core/Src/fsm_tuning.c **** 		if(timer1_flag){
  55              		.loc 1 8 6
  56 0030 A44B     		ldr	r3, .L49+4
  57 0032 1B68     		ldr	r3, [r3]
  58              		.loc 1 8 5
  59 0034 002B     		cmp	r3, #0
  60 0036 08D0     		beq	.L10
   9:./Core/Src/fsm_tuning.c **** 			timer1_flag = 0;
  61              		.loc 1 9 16
  62 0038 A24B     		ldr	r3, .L49+4
  63 003a 0022     		movs	r2, #0
  64 003c 1A60     		str	r2, [r3]
  10:./Core/Src/fsm_tuning.c **** 			setTimer1(500);
  65              		.loc 1 10 4
  66 003e 4FF4FA70 		mov	r0, #500
  67 0042 FFF7FEFF 		bl	setTimer1
  11:./Core/Src/fsm_tuning.c **** 			toggleTraffic1Red();
  68              		.loc 1 11 4
  69 0046 FFF7FEFF 		bl	toggleTraffic1Red
  70              	.L10:
  12:./Core/Src/fsm_tuning.c **** 		}
  13:./Core/Src/fsm_tuning.c **** 
  14:./Core/Src/fsm_tuning.c **** 		if(isButtonPressed(1)){
  71              		.loc 1 14 6
  72 004a 0120     		movs	r0, #1
  73 004c FFF7FEFF 		bl	isButtonPressed
  74 0050 0346     		mov	r3, r0
  75              		.loc 1 14 5
  76 0052 002B     		cmp	r3, #0
  77 0054 13D0     		beq	.L11
  15:./Core/Src/fsm_tuning.c **** 			//isButtonPressed(2);
  16:./Core/Src/fsm_tuning.c **** 			//isButtonPressed(3);
  17:./Core/Src/fsm_tuning.c **** 			status = AUTO_RED_GREEN;
  78              		.loc 1 17 11
  79 0056 9A4B     		ldr	r3, .L49
  80 0058 0222     		movs	r2, #2
  81 005a 1A60     		str	r2, [r3]
  18:./Core/Src/fsm_tuning.c **** 			acceptTraffic1Red();
  82              		.loc 1 18 4
  83 005c FFF7FEFF 		bl	acceptTraffic1Red
  19:./Core/Src/fsm_tuning.c **** 			setTimer1(1000);
  84              		.loc 1 19 4
  85 0060 4FF47A70 		mov	r0, #1000
  86 0064 FFF7FEFF 		bl	setTimer1
  20:./Core/Src/fsm_tuning.c **** 			counter = max_red1;
  87              		.loc 1 20 12
  88 0068 974B     		ldr	r3, .L49+8
  89 006a 1B68     		ldr	r3, [r3]
  90 006c 974A     		ldr	r2, .L49+12
  91 006e 1360     		str	r3, [r2]
  21:./Core/Src/fsm_tuning.c **** 			displayCounter();
  92              		.loc 1 21 4
  93 0070 FFF7FEFF 		bl	displayCounter
  22:./Core/Src/fsm_tuning.c **** 			setTraffic1Red();
ARM GAS  C:\Users\ULTIMA~1\AppData\Local\Temp\ccqGTINA.s 			page 3


  94              		.loc 1 22 4
  95 0074 FFF7FEFF 		bl	setTraffic1Red
  23:./Core/Src/fsm_tuning.c **** 			setTraffic2Green();
  96              		.loc 1 23 4
  97 0078 FFF7FEFF 		bl	setTraffic2Green
  24:./Core/Src/fsm_tuning.c **** 			break;
  98              		.loc 1 24 4
  99 007c 05E2     		b	.L12
 100              	.L11:
  25:./Core/Src/fsm_tuning.c **** 		}
  26:./Core/Src/fsm_tuning.c **** 
  27:./Core/Src/fsm_tuning.c **** 		if(isButtonPressed(2)){
 101              		.loc 1 27 6
 102 007e 0220     		movs	r0, #2
 103 0080 FFF7FEFF 		bl	isButtonPressed
 104 0084 0346     		mov	r3, r0
 105              		.loc 1 27 5
 106 0086 002B     		cmp	r3, #0
 107 0088 13D0     		beq	.L13
  28:./Core/Src/fsm_tuning.c **** 			//isButtonPressed(3);
  29:./Core/Src/fsm_tuning.c **** 			status = TUNING_RED2;
 108              		.loc 1 29 11
 109 008a 8D4B     		ldr	r3, .L49
 110 008c 1622     		movs	r2, #22
 111 008e 1A60     		str	r2, [r3]
  30:./Core/Src/fsm_tuning.c **** 			setTimer1(1000);
 112              		.loc 1 30 4
 113 0090 4FF47A70 		mov	r0, #1000
 114 0094 FFF7FEFF 		bl	setTimer1
  31:./Core/Src/fsm_tuning.c **** 			acceptTraffic1Red();
 115              		.loc 1 31 4
 116 0098 FFF7FEFF 		bl	acceptTraffic1Red
  32:./Core/Src/fsm_tuning.c **** 			counter = max_red2;
 117              		.loc 1 32 12
 118 009c 8C4B     		ldr	r3, .L49+16
 119 009e 1B68     		ldr	r3, [r3]
 120 00a0 8A4A     		ldr	r2, .L49+12
 121 00a2 1360     		str	r3, [r2]
  33:./Core/Src/fsm_tuning.c **** 			displayCounter();
 122              		.loc 1 33 4
 123 00a4 FFF7FEFF 		bl	displayCounter
  34:./Core/Src/fsm_tuning.c **** 			clearTraffic1();
 124              		.loc 1 34 4
 125 00a8 FFF7FEFF 		bl	clearTraffic1
  35:./Core/Src/fsm_tuning.c **** 			clearTraffic2();
 126              		.loc 1 35 4
 127 00ac FFF7FEFF 		bl	clearTraffic2
  36:./Core/Src/fsm_tuning.c **** 			break;
 128              		.loc 1 36 4
 129 00b0 EBE1     		b	.L12
 130              	.L13:
  37:./Core/Src/fsm_tuning.c **** 		}
  38:./Core/Src/fsm_tuning.c **** 
  39:./Core/Src/fsm_tuning.c **** 		if(isButtonPressed(3)){
 131              		.loc 1 39 6
 132 00b2 0320     		movs	r0, #3
 133 00b4 FFF7FEFF 		bl	isButtonPressed
ARM GAS  C:\Users\ULTIMA~1\AppData\Local\Temp\ccqGTINA.s 			page 4


 134 00b8 0346     		mov	r3, r0
 135              		.loc 1 39 5
 136 00ba 002B     		cmp	r3, #0
 137 00bc 00F0DA81 		beq	.L42
  40:./Core/Src/fsm_tuning.c **** 			counter++;
 138              		.loc 1 40 11
 139 00c0 824B     		ldr	r3, .L49+12
 140 00c2 1B68     		ldr	r3, [r3]
 141 00c4 0133     		adds	r3, r3, #1
 142 00c6 814A     		ldr	r2, .L49+12
 143 00c8 1360     		str	r3, [r2]
  41:./Core/Src/fsm_tuning.c **** 			if(counter > 99){
 144              		.loc 1 41 15
 145 00ca 804B     		ldr	r3, .L49+12
 146 00cc 1B68     		ldr	r3, [r3]
 147              		.loc 1 41 6
 148 00ce 632B     		cmp	r3, #99
 149 00d0 02DD     		ble	.L15
  42:./Core/Src/fsm_tuning.c **** 				counter = 2;
 150              		.loc 1 42 13
 151 00d2 7E4B     		ldr	r3, .L49+12
 152 00d4 0222     		movs	r2, #2
 153 00d6 1A60     		str	r2, [r3]
 154              	.L15:
  43:./Core/Src/fsm_tuning.c **** 			}
  44:./Core/Src/fsm_tuning.c **** 			displayCounter();
 155              		.loc 1 44 4
 156 00d8 FFF7FEFF 		bl	displayCounter
  45:./Core/Src/fsm_tuning.c **** 		}
  46:./Core/Src/fsm_tuning.c **** 
  47:./Core/Src/fsm_tuning.c **** 		break;
 157              		.loc 1 47 3
 158 00dc CAE1     		b	.L42
 159              	.L8:
  48:./Core/Src/fsm_tuning.c **** 	case TUNING_RED2:
  49:./Core/Src/fsm_tuning.c **** 		if(timer1_flag){
 160              		.loc 1 49 6
 161 00de 794B     		ldr	r3, .L49+4
 162 00e0 1B68     		ldr	r3, [r3]
 163              		.loc 1 49 5
 164 00e2 002B     		cmp	r3, #0
 165 00e4 08D0     		beq	.L16
  50:./Core/Src/fsm_tuning.c **** 			timer1_flag = 0;
 166              		.loc 1 50 16
 167 00e6 774B     		ldr	r3, .L49+4
 168 00e8 0022     		movs	r2, #0
 169 00ea 1A60     		str	r2, [r3]
  51:./Core/Src/fsm_tuning.c **** 			setTimer1(500);
 170              		.loc 1 51 4
 171 00ec 4FF4FA70 		mov	r0, #500
 172 00f0 FFF7FEFF 		bl	setTimer1
  52:./Core/Src/fsm_tuning.c **** 			toggleTraffic2Red();
 173              		.loc 1 52 4
 174 00f4 FFF7FEFF 		bl	toggleTraffic2Red
 175              	.L16:
  53:./Core/Src/fsm_tuning.c **** 		}
  54:./Core/Src/fsm_tuning.c **** 
ARM GAS  C:\Users\ULTIMA~1\AppData\Local\Temp\ccqGTINA.s 			page 5


  55:./Core/Src/fsm_tuning.c **** 		if(isButtonPressed(1)){
 176              		.loc 1 55 6
 177 00f8 0120     		movs	r0, #1
 178 00fa FFF7FEFF 		bl	isButtonPressed
 179 00fe 0346     		mov	r3, r0
 180              		.loc 1 55 5
 181 0100 002B     		cmp	r3, #0
 182 0102 13D0     		beq	.L17
  56:./Core/Src/fsm_tuning.c **** 			//isButtonPressed(2);
  57:./Core/Src/fsm_tuning.c **** 			//isButtonPressed(3);
  58:./Core/Src/fsm_tuning.c **** 			acceptTraffic2Red();
 183              		.loc 1 58 4
 184 0104 FFF7FEFF 		bl	acceptTraffic2Red
  59:./Core/Src/fsm_tuning.c **** 			status = AUTO_RED_GREEN;
 185              		.loc 1 59 11
 186 0108 6D4B     		ldr	r3, .L49
 187 010a 0222     		movs	r2, #2
 188 010c 1A60     		str	r2, [r3]
  60:./Core/Src/fsm_tuning.c **** 			setTimer1(1000);
 189              		.loc 1 60 4
 190 010e 4FF47A70 		mov	r0, #1000
 191 0112 FFF7FEFF 		bl	setTimer1
  61:./Core/Src/fsm_tuning.c **** 			counter = max_red1;
 192              		.loc 1 61 12
 193 0116 6C4B     		ldr	r3, .L49+8
 194 0118 1B68     		ldr	r3, [r3]
 195 011a 6C4A     		ldr	r2, .L49+12
 196 011c 1360     		str	r3, [r2]
  62:./Core/Src/fsm_tuning.c **** 			displayCounter();
 197              		.loc 1 62 4
 198 011e FFF7FEFF 		bl	displayCounter
  63:./Core/Src/fsm_tuning.c **** 			setTraffic2Red();
 199              		.loc 1 63 4
 200 0122 FFF7FEFF 		bl	setTraffic2Red
  64:./Core/Src/fsm_tuning.c **** 			setTraffic2Green();
 201              		.loc 1 64 4
 202 0126 FFF7FEFF 		bl	setTraffic2Green
  65:./Core/Src/fsm_tuning.c **** 			break;
 203              		.loc 1 65 4
 204 012a AEE1     		b	.L12
 205              	.L17:
  66:./Core/Src/fsm_tuning.c **** 		}
  67:./Core/Src/fsm_tuning.c **** 
  68:./Core/Src/fsm_tuning.c **** 		if(isButtonPressed(2)){
 206              		.loc 1 68 6
 207 012c 0220     		movs	r0, #2
 208 012e FFF7FEFF 		bl	isButtonPressed
 209 0132 0346     		mov	r3, r0
 210              		.loc 1 68 5
 211 0134 002B     		cmp	r3, #0
 212 0136 13D0     		beq	.L18
  69:./Core/Src/fsm_tuning.c **** 			//isButtonPressed(3);
  70:./Core/Src/fsm_tuning.c **** 			status = TUNING_GREEN1;
 213              		.loc 1 70 11
 214 0138 614B     		ldr	r3, .L49
 215 013a 1722     		movs	r2, #23
 216 013c 1A60     		str	r2, [r3]
ARM GAS  C:\Users\ULTIMA~1\AppData\Local\Temp\ccqGTINA.s 			page 6


  71:./Core/Src/fsm_tuning.c **** 			setTimer1(1000);
 217              		.loc 1 71 4
 218 013e 4FF47A70 		mov	r0, #1000
 219 0142 FFF7FEFF 		bl	setTimer1
  72:./Core/Src/fsm_tuning.c **** 			acceptTraffic2Red();
 220              		.loc 1 72 4
 221 0146 FFF7FEFF 		bl	acceptTraffic2Red
  73:./Core/Src/fsm_tuning.c **** 			counter = max_green1;
 222              		.loc 1 73 12
 223 014a 624B     		ldr	r3, .L49+20
 224 014c 1B68     		ldr	r3, [r3]
 225 014e 5F4A     		ldr	r2, .L49+12
 226 0150 1360     		str	r3, [r2]
  74:./Core/Src/fsm_tuning.c **** 			displayCounter();
 227              		.loc 1 74 4
 228 0152 FFF7FEFF 		bl	displayCounter
  75:./Core/Src/fsm_tuning.c **** 			clearTraffic1();
 229              		.loc 1 75 4
 230 0156 FFF7FEFF 		bl	clearTraffic1
  76:./Core/Src/fsm_tuning.c **** 			clearTraffic2();
 231              		.loc 1 76 4
 232 015a FFF7FEFF 		bl	clearTraffic2
  77:./Core/Src/fsm_tuning.c **** 			break;
 233              		.loc 1 77 4
 234 015e 94E1     		b	.L12
 235              	.L18:
  78:./Core/Src/fsm_tuning.c **** 		}
  79:./Core/Src/fsm_tuning.c **** 
  80:./Core/Src/fsm_tuning.c **** 		if(isButtonPressed(3)){
 236              		.loc 1 80 6
 237 0160 0320     		movs	r0, #3
 238 0162 FFF7FEFF 		bl	isButtonPressed
 239 0166 0346     		mov	r3, r0
 240              		.loc 1 80 5
 241 0168 002B     		cmp	r3, #0
 242 016a 00F08581 		beq	.L43
  81:./Core/Src/fsm_tuning.c **** 			counter++;
 243              		.loc 1 81 11
 244 016e 574B     		ldr	r3, .L49+12
 245 0170 1B68     		ldr	r3, [r3]
 246 0172 0133     		adds	r3, r3, #1
 247 0174 554A     		ldr	r2, .L49+12
 248 0176 1360     		str	r3, [r2]
  82:./Core/Src/fsm_tuning.c **** 			if(counter > 99){
 249              		.loc 1 82 15
 250 0178 544B     		ldr	r3, .L49+12
 251 017a 1B68     		ldr	r3, [r3]
 252              		.loc 1 82 6
 253 017c 632B     		cmp	r3, #99
 254 017e 02DD     		ble	.L20
  83:./Core/Src/fsm_tuning.c **** 				counter = 2;
 255              		.loc 1 83 13
 256 0180 524B     		ldr	r3, .L49+12
 257 0182 0222     		movs	r2, #2
 258 0184 1A60     		str	r2, [r3]
 259              	.L20:
  84:./Core/Src/fsm_tuning.c **** 			}
ARM GAS  C:\Users\ULTIMA~1\AppData\Local\Temp\ccqGTINA.s 			page 7


  85:./Core/Src/fsm_tuning.c **** 			displayCounter();
 260              		.loc 1 85 4
 261 0186 FFF7FEFF 		bl	displayCounter
  86:./Core/Src/fsm_tuning.c **** 		}
  87:./Core/Src/fsm_tuning.c **** 		break;
 262              		.loc 1 87 3
 263 018a 75E1     		b	.L43
 264              	.L7:
  88:./Core/Src/fsm_tuning.c **** 	case TUNING_GREEN1:
  89:./Core/Src/fsm_tuning.c **** 
  90:./Core/Src/fsm_tuning.c **** 		if(timer1_flag){
 265              		.loc 1 90 6
 266 018c 4D4B     		ldr	r3, .L49+4
 267 018e 1B68     		ldr	r3, [r3]
 268              		.loc 1 90 5
 269 0190 002B     		cmp	r3, #0
 270 0192 08D0     		beq	.L21
  91:./Core/Src/fsm_tuning.c **** 			timer1_flag = 0;
 271              		.loc 1 91 16
 272 0194 4B4B     		ldr	r3, .L49+4
 273 0196 0022     		movs	r2, #0
 274 0198 1A60     		str	r2, [r3]
  92:./Core/Src/fsm_tuning.c **** 			setTimer1(500);
 275              		.loc 1 92 4
 276 019a 4FF4FA70 		mov	r0, #500
 277 019e FFF7FEFF 		bl	setTimer1
  93:./Core/Src/fsm_tuning.c **** 			toggleTraffic1Green();
 278              		.loc 1 93 4
 279 01a2 FFF7FEFF 		bl	toggleTraffic1Green
 280              	.L21:
  94:./Core/Src/fsm_tuning.c **** 		}
  95:./Core/Src/fsm_tuning.c **** 
  96:./Core/Src/fsm_tuning.c **** 		if(isButtonPressed(1)){
 281              		.loc 1 96 6
 282 01a6 0120     		movs	r0, #1
 283 01a8 FFF7FEFF 		bl	isButtonPressed
 284 01ac 0346     		mov	r3, r0
 285              		.loc 1 96 5
 286 01ae 002B     		cmp	r3, #0
 287 01b0 13D0     		beq	.L22
  97:./Core/Src/fsm_tuning.c **** 			//isButtonPressed(2);
  98:./Core/Src/fsm_tuning.c **** 			//isButtonPressed(3);
  99:./Core/Src/fsm_tuning.c **** 			acceptTraffic1Green();
 288              		.loc 1 99 4
 289 01b2 FFF7FEFF 		bl	acceptTraffic1Green
 100:./Core/Src/fsm_tuning.c **** 			status = AUTO_RED_GREEN;
 290              		.loc 1 100 11
 291 01b6 424B     		ldr	r3, .L49
 292 01b8 0222     		movs	r2, #2
 293 01ba 1A60     		str	r2, [r3]
 101:./Core/Src/fsm_tuning.c **** 			setTimer1(1000);
 294              		.loc 1 101 4
 295 01bc 4FF47A70 		mov	r0, #1000
 296 01c0 FFF7FEFF 		bl	setTimer1
 102:./Core/Src/fsm_tuning.c **** 			counter = max_red1;
 297              		.loc 1 102 12
 298 01c4 404B     		ldr	r3, .L49+8
ARM GAS  C:\Users\ULTIMA~1\AppData\Local\Temp\ccqGTINA.s 			page 8


 299 01c6 1B68     		ldr	r3, [r3]
 300 01c8 404A     		ldr	r2, .L49+12
 301 01ca 1360     		str	r3, [r2]
 103:./Core/Src/fsm_tuning.c **** 			displayCounter();
 302              		.loc 1 103 4
 303 01cc FFF7FEFF 		bl	displayCounter
 104:./Core/Src/fsm_tuning.c **** 			setTraffic1Red();
 304              		.loc 1 104 4
 305 01d0 FFF7FEFF 		bl	setTraffic1Red
 105:./Core/Src/fsm_tuning.c **** 			setTraffic2Green();
 306              		.loc 1 105 4
 307 01d4 FFF7FEFF 		bl	setTraffic2Green
 106:./Core/Src/fsm_tuning.c **** 			break;
 308              		.loc 1 106 4
 309 01d8 57E1     		b	.L12
 310              	.L22:
 107:./Core/Src/fsm_tuning.c **** 		}
 108:./Core/Src/fsm_tuning.c **** 
 109:./Core/Src/fsm_tuning.c **** 		if(isButtonPressed(2)){
 311              		.loc 1 109 6
 312 01da 0220     		movs	r0, #2
 313 01dc FFF7FEFF 		bl	isButtonPressed
 314 01e0 0346     		mov	r3, r0
 315              		.loc 1 109 5
 316 01e2 002B     		cmp	r3, #0
 317 01e4 13D0     		beq	.L23
 110:./Core/Src/fsm_tuning.c **** 			//isButtonPressed(3);
 111:./Core/Src/fsm_tuning.c **** 			status = TUNING_GREEN2;
 318              		.loc 1 111 11
 319 01e6 364B     		ldr	r3, .L49
 320 01e8 1822     		movs	r2, #24
 321 01ea 1A60     		str	r2, [r3]
 112:./Core/Src/fsm_tuning.c **** 			setTimer1(1000);
 322              		.loc 1 112 4
 323 01ec 4FF47A70 		mov	r0, #1000
 324 01f0 FFF7FEFF 		bl	setTimer1
 113:./Core/Src/fsm_tuning.c **** 			acceptTraffic1Green();
 325              		.loc 1 113 4
 326 01f4 FFF7FEFF 		bl	acceptTraffic1Green
 114:./Core/Src/fsm_tuning.c **** 			counter = max_green2;
 327              		.loc 1 114 12
 328 01f8 374B     		ldr	r3, .L49+24
 329 01fa 1B68     		ldr	r3, [r3]
 330 01fc 334A     		ldr	r2, .L49+12
 331 01fe 1360     		str	r3, [r2]
 115:./Core/Src/fsm_tuning.c **** 			displayCounter();
 332              		.loc 1 115 4
 333 0200 FFF7FEFF 		bl	displayCounter
 116:./Core/Src/fsm_tuning.c **** 			clearTraffic1();
 334              		.loc 1 116 4
 335 0204 FFF7FEFF 		bl	clearTraffic1
 117:./Core/Src/fsm_tuning.c **** 			clearTraffic2();
 336              		.loc 1 117 4
 337 0208 FFF7FEFF 		bl	clearTraffic2
 118:./Core/Src/fsm_tuning.c **** 			break;
 338              		.loc 1 118 4
 339 020c 3DE1     		b	.L12
ARM GAS  C:\Users\ULTIMA~1\AppData\Local\Temp\ccqGTINA.s 			page 9


 340              	.L23:
 119:./Core/Src/fsm_tuning.c **** 		}
 120:./Core/Src/fsm_tuning.c **** 
 121:./Core/Src/fsm_tuning.c **** 		if(isButtonPressed(3)){
 341              		.loc 1 121 6
 342 020e 0320     		movs	r0, #3
 343 0210 FFF7FEFF 		bl	isButtonPressed
 344 0214 0346     		mov	r3, r0
 345              		.loc 1 121 5
 346 0216 002B     		cmp	r3, #0
 347 0218 00F03081 		beq	.L44
 122:./Core/Src/fsm_tuning.c **** 			counter++;
 348              		.loc 1 122 11
 349 021c 2B4B     		ldr	r3, .L49+12
 350 021e 1B68     		ldr	r3, [r3]
 351 0220 0133     		adds	r3, r3, #1
 352 0222 2A4A     		ldr	r2, .L49+12
 353 0224 1360     		str	r3, [r2]
 123:./Core/Src/fsm_tuning.c **** 			if(counter == max_red2){
 354              		.loc 1 123 15
 355 0226 294B     		ldr	r3, .L49+12
 356 0228 1A68     		ldr	r2, [r3]
 357 022a 294B     		ldr	r3, .L49+16
 358 022c 1B68     		ldr	r3, [r3]
 359              		.loc 1 123 6
 360 022e 9A42     		cmp	r2, r3
 361 0230 02D1     		bne	.L25
 124:./Core/Src/fsm_tuning.c **** 				counter = 1;
 362              		.loc 1 124 13
 363 0232 264B     		ldr	r3, .L49+12
 364 0234 0122     		movs	r2, #1
 365 0236 1A60     		str	r2, [r3]
 366              	.L25:
 125:./Core/Src/fsm_tuning.c **** 			}
 126:./Core/Src/fsm_tuning.c **** 			displayCounter();
 367              		.loc 1 126 4
 368 0238 FFF7FEFF 		bl	displayCounter
 127:./Core/Src/fsm_tuning.c **** 		}
 128:./Core/Src/fsm_tuning.c **** 		break;
 369              		.loc 1 128 3
 370 023c 1EE1     		b	.L44
 371              	.L6:
 129:./Core/Src/fsm_tuning.c **** 	case TUNING_GREEN2:
 130:./Core/Src/fsm_tuning.c **** 
 131:./Core/Src/fsm_tuning.c **** 		if(timer1_flag){
 372              		.loc 1 131 6
 373 023e 214B     		ldr	r3, .L49+4
 374 0240 1B68     		ldr	r3, [r3]
 375              		.loc 1 131 5
 376 0242 002B     		cmp	r3, #0
 377 0244 08D0     		beq	.L26
 132:./Core/Src/fsm_tuning.c **** 			timer1_flag = 0;
 378              		.loc 1 132 16
 379 0246 1F4B     		ldr	r3, .L49+4
 380 0248 0022     		movs	r2, #0
 381 024a 1A60     		str	r2, [r3]
 133:./Core/Src/fsm_tuning.c **** 			setTimer1(500);
ARM GAS  C:\Users\ULTIMA~1\AppData\Local\Temp\ccqGTINA.s 			page 10


 382              		.loc 1 133 4
 383 024c 4FF4FA70 		mov	r0, #500
 384 0250 FFF7FEFF 		bl	setTimer1
 134:./Core/Src/fsm_tuning.c **** 			toggleTraffic2Green();
 385              		.loc 1 134 4
 386 0254 FFF7FEFF 		bl	toggleTraffic2Green
 387              	.L26:
 135:./Core/Src/fsm_tuning.c **** 		}
 136:./Core/Src/fsm_tuning.c **** 
 137:./Core/Src/fsm_tuning.c **** 		if(isButtonPressed(1)){
 388              		.loc 1 137 6
 389 0258 0120     		movs	r0, #1
 390 025a FFF7FEFF 		bl	isButtonPressed
 391 025e 0346     		mov	r3, r0
 392              		.loc 1 137 5
 393 0260 002B     		cmp	r3, #0
 394 0262 13D0     		beq	.L27
 138:./Core/Src/fsm_tuning.c **** 			//isButtonPressed(2);
 139:./Core/Src/fsm_tuning.c **** 			//isButtonPressed(3);
 140:./Core/Src/fsm_tuning.c **** 			status = AUTO_RED_GREEN;
 395              		.loc 1 140 11
 396 0264 164B     		ldr	r3, .L49
 397 0266 0222     		movs	r2, #2
 398 0268 1A60     		str	r2, [r3]
 141:./Core/Src/fsm_tuning.c **** 			acceptTraffic2Green();
 399              		.loc 1 141 4
 400 026a FFF7FEFF 		bl	acceptTraffic2Green
 142:./Core/Src/fsm_tuning.c **** 			setTimer1(1000);
 401              		.loc 1 142 4
 402 026e 4FF47A70 		mov	r0, #1000
 403 0272 FFF7FEFF 		bl	setTimer1
 143:./Core/Src/fsm_tuning.c **** 			counter = max_red1;
 404              		.loc 1 143 12
 405 0276 144B     		ldr	r3, .L49+8
 406 0278 1B68     		ldr	r3, [r3]
 407 027a 144A     		ldr	r2, .L49+12
 408 027c 1360     		str	r3, [r2]
 144:./Core/Src/fsm_tuning.c **** 			displayCounter();
 409              		.loc 1 144 4
 410 027e FFF7FEFF 		bl	displayCounter
 145:./Core/Src/fsm_tuning.c **** 			setTraffic1Red();
 411              		.loc 1 145 4
 412 0282 FFF7FEFF 		bl	setTraffic1Red
 146:./Core/Src/fsm_tuning.c **** 			setTraffic2Green();
 413              		.loc 1 146 4
 414 0286 FFF7FEFF 		bl	setTraffic2Green
 147:./Core/Src/fsm_tuning.c **** 			break;
 415              		.loc 1 147 4
 416 028a FEE0     		b	.L12
 417              	.L27:
 148:./Core/Src/fsm_tuning.c **** 		}
 149:./Core/Src/fsm_tuning.c **** 
 150:./Core/Src/fsm_tuning.c **** 		if(isButtonPressed(2)){
 418              		.loc 1 150 6
 419 028c 0220     		movs	r0, #2
 420 028e FFF7FEFF 		bl	isButtonPressed
 421 0292 0346     		mov	r3, r0
ARM GAS  C:\Users\ULTIMA~1\AppData\Local\Temp\ccqGTINA.s 			page 11


 422              		.loc 1 150 5
 423 0294 002B     		cmp	r3, #0
 424 0296 23D0     		beq	.L28
 151:./Core/Src/fsm_tuning.c **** 			//isButtonPressed(3);
 152:./Core/Src/fsm_tuning.c **** 			status = TUNING_YELLOW1;
 425              		.loc 1 152 11
 426 0298 094B     		ldr	r3, .L49
 427 029a 1922     		movs	r2, #25
 428 029c 1A60     		str	r2, [r3]
 153:./Core/Src/fsm_tuning.c **** 			setTimer1(1000);
 429              		.loc 1 153 4
 430 029e 4FF47A70 		mov	r0, #1000
 431 02a2 FFF7FEFF 		bl	setTimer1
 154:./Core/Src/fsm_tuning.c **** 			acceptTraffic2Green();
 432              		.loc 1 154 4
 433 02a6 FFF7FEFF 		bl	acceptTraffic2Green
 155:./Core/Src/fsm_tuning.c **** 			counter = max_yellow1;
 434              		.loc 1 155 12
 435 02aa 0C4B     		ldr	r3, .L49+28
 436 02ac 1B68     		ldr	r3, [r3]
 437 02ae 074A     		ldr	r2, .L49+12
 438 02b0 1360     		str	r3, [r2]
 156:./Core/Src/fsm_tuning.c **** 			displayCounter();
 439              		.loc 1 156 4
 440 02b2 FFF7FEFF 		bl	displayCounter
 157:./Core/Src/fsm_tuning.c **** 			clearTraffic1();
 441              		.loc 1 157 4
 442 02b6 FFF7FEFF 		bl	clearTraffic1
 158:./Core/Src/fsm_tuning.c **** 			clearTraffic2();
 443              		.loc 1 158 4
 444 02ba FFF7FEFF 		bl	clearTraffic2
 159:./Core/Src/fsm_tuning.c **** 			break;
 445              		.loc 1 159 4
 446 02be E4E0     		b	.L12
 447              	.L50:
 448              		.align	2
 449              	.L49:
 450 02c0 00000000 		.word	status
 451 02c4 00000000 		.word	timer1_flag
 452 02c8 00000000 		.word	max_red1
 453 02cc 00000000 		.word	counter
 454 02d0 00000000 		.word	max_red2
 455 02d4 00000000 		.word	max_green1
 456 02d8 00000000 		.word	max_green2
 457 02dc 00000000 		.word	max_yellow1
 458              	.L28:
 160:./Core/Src/fsm_tuning.c **** 		}
 161:./Core/Src/fsm_tuning.c **** 
 162:./Core/Src/fsm_tuning.c **** 		if(isButtonPressed(3)){
 459              		.loc 1 162 6
 460 02e0 0320     		movs	r0, #3
 461 02e2 FFF7FEFF 		bl	isButtonPressed
 462 02e6 0346     		mov	r3, r0
 463              		.loc 1 162 5
 464 02e8 002B     		cmp	r3, #0
 465 02ea 00F0C980 		beq	.L45
 163:./Core/Src/fsm_tuning.c **** 			counter++;
ARM GAS  C:\Users\ULTIMA~1\AppData\Local\Temp\ccqGTINA.s 			page 12


 466              		.loc 1 163 11
 467 02ee 684B     		ldr	r3, .L51
 468 02f0 1B68     		ldr	r3, [r3]
 469 02f2 0133     		adds	r3, r3, #1
 470 02f4 664A     		ldr	r2, .L51
 471 02f6 1360     		str	r3, [r2]
 164:./Core/Src/fsm_tuning.c **** 			if(counter == max_red1){
 472              		.loc 1 164 15
 473 02f8 654B     		ldr	r3, .L51
 474 02fa 1A68     		ldr	r2, [r3]
 475 02fc 654B     		ldr	r3, .L51+4
 476 02fe 1B68     		ldr	r3, [r3]
 477              		.loc 1 164 6
 478 0300 9A42     		cmp	r2, r3
 479 0302 02D1     		bne	.L30
 165:./Core/Src/fsm_tuning.c **** 				counter = 1;
 480              		.loc 1 165 13
 481 0304 624B     		ldr	r3, .L51
 482 0306 0122     		movs	r2, #1
 483 0308 1A60     		str	r2, [r3]
 484              	.L30:
 166:./Core/Src/fsm_tuning.c **** 			}
 167:./Core/Src/fsm_tuning.c **** 			displayCounter();
 485              		.loc 1 167 4
 486 030a FFF7FEFF 		bl	displayCounter
 168:./Core/Src/fsm_tuning.c **** 		}
 169:./Core/Src/fsm_tuning.c **** 		break;
 487              		.loc 1 169 3
 488 030e B7E0     		b	.L45
 489              	.L5:
 170:./Core/Src/fsm_tuning.c **** 	case TUNING_YELLOW1:
 171:./Core/Src/fsm_tuning.c **** 		if(timer1_flag){
 490              		.loc 1 171 6
 491 0310 614B     		ldr	r3, .L51+8
 492 0312 1B68     		ldr	r3, [r3]
 493              		.loc 1 171 5
 494 0314 002B     		cmp	r3, #0
 495 0316 08D0     		beq	.L31
 172:./Core/Src/fsm_tuning.c **** 			timer1_flag = 0;
 496              		.loc 1 172 16
 497 0318 5F4B     		ldr	r3, .L51+8
 498 031a 0022     		movs	r2, #0
 499 031c 1A60     		str	r2, [r3]
 173:./Core/Src/fsm_tuning.c **** 			setTimer1(500);
 500              		.loc 1 173 4
 501 031e 4FF4FA70 		mov	r0, #500
 502 0322 FFF7FEFF 		bl	setTimer1
 174:./Core/Src/fsm_tuning.c **** 			toggleTraffic1Yellow();
 503              		.loc 1 174 4
 504 0326 FFF7FEFF 		bl	toggleTraffic1Yellow
 505              	.L31:
 175:./Core/Src/fsm_tuning.c **** 		}
 176:./Core/Src/fsm_tuning.c **** 		if(isButtonPressed(1)){
 506              		.loc 1 176 6
 507 032a 0120     		movs	r0, #1
 508 032c FFF7FEFF 		bl	isButtonPressed
 509 0330 0346     		mov	r3, r0
ARM GAS  C:\Users\ULTIMA~1\AppData\Local\Temp\ccqGTINA.s 			page 13


 510              		.loc 1 176 5
 511 0332 002B     		cmp	r3, #0
 512 0334 13D0     		beq	.L32
 177:./Core/Src/fsm_tuning.c **** 			//isButtonPressed(2);
 178:./Core/Src/fsm_tuning.c **** 			//isButtonPressed(3);
 179:./Core/Src/fsm_tuning.c **** 			status = AUTO_RED_GREEN;
 513              		.loc 1 179 11
 514 0336 594B     		ldr	r3, .L51+12
 515 0338 0222     		movs	r2, #2
 516 033a 1A60     		str	r2, [r3]
 180:./Core/Src/fsm_tuning.c **** 			acceptTraffic1Yellow();
 517              		.loc 1 180 4
 518 033c FFF7FEFF 		bl	acceptTraffic1Yellow
 181:./Core/Src/fsm_tuning.c **** 			setTimer1(1000);
 519              		.loc 1 181 4
 520 0340 4FF47A70 		mov	r0, #1000
 521 0344 FFF7FEFF 		bl	setTimer1
 182:./Core/Src/fsm_tuning.c **** 			counter = max_red1;
 522              		.loc 1 182 12
 523 0348 524B     		ldr	r3, .L51+4
 524 034a 1B68     		ldr	r3, [r3]
 525 034c 504A     		ldr	r2, .L51
 526 034e 1360     		str	r3, [r2]
 183:./Core/Src/fsm_tuning.c **** 			displayCounter();
 527              		.loc 1 183 4
 528 0350 FFF7FEFF 		bl	displayCounter
 184:./Core/Src/fsm_tuning.c **** 			setTraffic1Red();
 529              		.loc 1 184 4
 530 0354 FFF7FEFF 		bl	setTraffic1Red
 185:./Core/Src/fsm_tuning.c **** 			setTraffic2Green();
 531              		.loc 1 185 4
 532 0358 FFF7FEFF 		bl	setTraffic2Green
 186:./Core/Src/fsm_tuning.c **** 			break;
 533              		.loc 1 186 4
 534 035c 95E0     		b	.L12
 535              	.L32:
 187:./Core/Src/fsm_tuning.c **** 		}
 188:./Core/Src/fsm_tuning.c **** 
 189:./Core/Src/fsm_tuning.c **** 		if(isButtonPressed(2)){
 536              		.loc 1 189 6
 537 035e 0220     		movs	r0, #2
 538 0360 FFF7FEFF 		bl	isButtonPressed
 539 0364 0346     		mov	r3, r0
 540              		.loc 1 189 5
 541 0366 002B     		cmp	r3, #0
 542 0368 13D0     		beq	.L33
 190:./Core/Src/fsm_tuning.c **** 			//isButtonPressed(3);
 191:./Core/Src/fsm_tuning.c **** 			status = TUNING_YELLOW2;
 543              		.loc 1 191 11
 544 036a 4C4B     		ldr	r3, .L51+12
 545 036c 1A22     		movs	r2, #26
 546 036e 1A60     		str	r2, [r3]
 192:./Core/Src/fsm_tuning.c **** 			setTimer1(1000);
 547              		.loc 1 192 4
 548 0370 4FF47A70 		mov	r0, #1000
 549 0374 FFF7FEFF 		bl	setTimer1
 193:./Core/Src/fsm_tuning.c **** 			acceptTraffic1Yellow();
ARM GAS  C:\Users\ULTIMA~1\AppData\Local\Temp\ccqGTINA.s 			page 14


 550              		.loc 1 193 4
 551 0378 FFF7FEFF 		bl	acceptTraffic1Yellow
 194:./Core/Src/fsm_tuning.c **** 			counter = max_yellow2;
 552              		.loc 1 194 12
 553 037c 484B     		ldr	r3, .L51+16
 554 037e 1B68     		ldr	r3, [r3]
 555 0380 434A     		ldr	r2, .L51
 556 0382 1360     		str	r3, [r2]
 195:./Core/Src/fsm_tuning.c **** 			displayCounter();
 557              		.loc 1 195 4
 558 0384 FFF7FEFF 		bl	displayCounter
 196:./Core/Src/fsm_tuning.c **** 			clearTraffic1();
 559              		.loc 1 196 4
 560 0388 FFF7FEFF 		bl	clearTraffic1
 197:./Core/Src/fsm_tuning.c **** 			clearTraffic2();
 561              		.loc 1 197 4
 562 038c FFF7FEFF 		bl	clearTraffic2
 198:./Core/Src/fsm_tuning.c **** 			break;
 563              		.loc 1 198 4
 564 0390 7BE0     		b	.L12
 565              	.L33:
 199:./Core/Src/fsm_tuning.c **** 		}
 200:./Core/Src/fsm_tuning.c **** 
 201:./Core/Src/fsm_tuning.c **** 		if(isButtonPressed(3)){
 566              		.loc 1 201 6
 567 0392 0320     		movs	r0, #3
 568 0394 FFF7FEFF 		bl	isButtonPressed
 569 0398 0346     		mov	r3, r0
 570              		.loc 1 201 5
 571 039a 002B     		cmp	r3, #0
 572 039c 72D0     		beq	.L46
 202:./Core/Src/fsm_tuning.c **** 			counter++;
 573              		.loc 1 202 11
 574 039e 3C4B     		ldr	r3, .L51
 575 03a0 1B68     		ldr	r3, [r3]
 576 03a2 0133     		adds	r3, r3, #1
 577 03a4 3A4A     		ldr	r2, .L51
 578 03a6 1360     		str	r3, [r2]
 203:./Core/Src/fsm_tuning.c **** 			if(counter == max_red2){
 579              		.loc 1 203 15
 580 03a8 394B     		ldr	r3, .L51
 581 03aa 1A68     		ldr	r2, [r3]
 582 03ac 3D4B     		ldr	r3, .L51+20
 583 03ae 1B68     		ldr	r3, [r3]
 584              		.loc 1 203 6
 585 03b0 9A42     		cmp	r2, r3
 586 03b2 02D1     		bne	.L35
 204:./Core/Src/fsm_tuning.c **** 				counter = 1;
 587              		.loc 1 204 13
 588 03b4 364B     		ldr	r3, .L51
 589 03b6 0122     		movs	r2, #1
 590 03b8 1A60     		str	r2, [r3]
 591              	.L35:
 205:./Core/Src/fsm_tuning.c **** 			}
 206:./Core/Src/fsm_tuning.c **** 			displayCounter();
 592              		.loc 1 206 4
 593 03ba FFF7FEFF 		bl	displayCounter
ARM GAS  C:\Users\ULTIMA~1\AppData\Local\Temp\ccqGTINA.s 			page 15


 207:./Core/Src/fsm_tuning.c **** 		}
 208:./Core/Src/fsm_tuning.c **** 		break;
 594              		.loc 1 208 3
 595 03be 61E0     		b	.L46
 596              	.L3:
 209:./Core/Src/fsm_tuning.c **** 	case TUNING_YELLOW2:
 210:./Core/Src/fsm_tuning.c **** 		if(timer1_flag){
 597              		.loc 1 210 6
 598 03c0 354B     		ldr	r3, .L51+8
 599 03c2 1B68     		ldr	r3, [r3]
 600              		.loc 1 210 5
 601 03c4 002B     		cmp	r3, #0
 602 03c6 08D0     		beq	.L36
 211:./Core/Src/fsm_tuning.c **** 			timer1_flag = 0;
 603              		.loc 1 211 16
 604 03c8 334B     		ldr	r3, .L51+8
 605 03ca 0022     		movs	r2, #0
 606 03cc 1A60     		str	r2, [r3]
 212:./Core/Src/fsm_tuning.c **** 			setTimer1(500);
 607              		.loc 1 212 4
 608 03ce 4FF4FA70 		mov	r0, #500
 609 03d2 FFF7FEFF 		bl	setTimer1
 213:./Core/Src/fsm_tuning.c **** 			toggleTraffic2Yellow();
 610              		.loc 1 213 4
 611 03d6 FFF7FEFF 		bl	toggleTraffic2Yellow
 612              	.L36:
 214:./Core/Src/fsm_tuning.c **** 		}
 215:./Core/Src/fsm_tuning.c **** 
 216:./Core/Src/fsm_tuning.c **** 		if(isButtonPressed(1)){
 613              		.loc 1 216 6
 614 03da 0120     		movs	r0, #1
 615 03dc FFF7FEFF 		bl	isButtonPressed
 616 03e0 0346     		mov	r3, r0
 617              		.loc 1 216 5
 618 03e2 002B     		cmp	r3, #0
 619 03e4 13D0     		beq	.L37
 217:./Core/Src/fsm_tuning.c **** 			//isButtonPressed(2);
 218:./Core/Src/fsm_tuning.c **** 			//isButtonPressed(3);
 219:./Core/Src/fsm_tuning.c **** 			status = AUTO_RED_GREEN;
 620              		.loc 1 219 11
 621 03e6 2D4B     		ldr	r3, .L51+12
 622 03e8 0222     		movs	r2, #2
 623 03ea 1A60     		str	r2, [r3]
 220:./Core/Src/fsm_tuning.c **** 			acceptTraffic2Yellow();
 624              		.loc 1 220 4
 625 03ec FFF7FEFF 		bl	acceptTraffic2Yellow
 221:./Core/Src/fsm_tuning.c **** 			setTimer1(1000);
 626              		.loc 1 221 4
 627 03f0 4FF47A70 		mov	r0, #1000
 628 03f4 FFF7FEFF 		bl	setTimer1
 222:./Core/Src/fsm_tuning.c **** 			counter = max_red1;
 629              		.loc 1 222 12
 630 03f8 264B     		ldr	r3, .L51+4
 631 03fa 1B68     		ldr	r3, [r3]
 632 03fc 244A     		ldr	r2, .L51
 633 03fe 1360     		str	r3, [r2]
 223:./Core/Src/fsm_tuning.c **** 			displayCounter();
ARM GAS  C:\Users\ULTIMA~1\AppData\Local\Temp\ccqGTINA.s 			page 16


 634              		.loc 1 223 4
 635 0400 FFF7FEFF 		bl	displayCounter
 224:./Core/Src/fsm_tuning.c **** 			setTraffic1Red();
 636              		.loc 1 224 4
 637 0404 FFF7FEFF 		bl	setTraffic1Red
 225:./Core/Src/fsm_tuning.c **** 			setTraffic2Green();
 638              		.loc 1 225 4
 639 0408 FFF7FEFF 		bl	setTraffic2Green
 226:./Core/Src/fsm_tuning.c **** 			break;
 640              		.loc 1 226 4
 641 040c 3DE0     		b	.L12
 642              	.L37:
 227:./Core/Src/fsm_tuning.c **** 		}
 228:./Core/Src/fsm_tuning.c **** 
 229:./Core/Src/fsm_tuning.c **** 		if(isButtonPressed(2)){
 643              		.loc 1 229 6
 644 040e 0220     		movs	r0, #2
 645 0410 FFF7FEFF 		bl	isButtonPressed
 646 0414 0346     		mov	r3, r0
 647              		.loc 1 229 5
 648 0416 002B     		cmp	r3, #0
 649 0418 13D0     		beq	.L38
 230:./Core/Src/fsm_tuning.c **** 			//isButtonPressed(3);
 231:./Core/Src/fsm_tuning.c **** 			status = TUNING_RED1;
 650              		.loc 1 231 11
 651 041a 204B     		ldr	r3, .L51+12
 652 041c 1522     		movs	r2, #21
 653 041e 1A60     		str	r2, [r3]
 232:./Core/Src/fsm_tuning.c **** 			setTimer1(1000);
 654              		.loc 1 232 4
 655 0420 4FF47A70 		mov	r0, #1000
 656 0424 FFF7FEFF 		bl	setTimer1
 233:./Core/Src/fsm_tuning.c **** 			acceptTraffic2Yellow();
 657              		.loc 1 233 4
 658 0428 FFF7FEFF 		bl	acceptTraffic2Yellow
 234:./Core/Src/fsm_tuning.c **** 			counter = max_red1;
 659              		.loc 1 234 12
 660 042c 194B     		ldr	r3, .L51+4
 661 042e 1B68     		ldr	r3, [r3]
 662 0430 174A     		ldr	r2, .L51
 663 0432 1360     		str	r3, [r2]
 235:./Core/Src/fsm_tuning.c **** 			displayCounter();
 664              		.loc 1 235 4
 665 0434 FFF7FEFF 		bl	displayCounter
 236:./Core/Src/fsm_tuning.c **** 			clearTraffic1();
 666              		.loc 1 236 4
 667 0438 FFF7FEFF 		bl	clearTraffic1
 237:./Core/Src/fsm_tuning.c **** 			clearTraffic2();
 668              		.loc 1 237 4
 669 043c FFF7FEFF 		bl	clearTraffic2
 238:./Core/Src/fsm_tuning.c **** 			break;
 670              		.loc 1 238 4
 671 0440 23E0     		b	.L12
 672              	.L38:
 239:./Core/Src/fsm_tuning.c **** 		}
 240:./Core/Src/fsm_tuning.c **** 
 241:./Core/Src/fsm_tuning.c **** 		if(isButtonPressed(3)){
ARM GAS  C:\Users\ULTIMA~1\AppData\Local\Temp\ccqGTINA.s 			page 17


 673              		.loc 1 241 6
 674 0442 0320     		movs	r0, #3
 675 0444 FFF7FEFF 		bl	isButtonPressed
 676 0448 0346     		mov	r3, r0
 677              		.loc 1 241 5
 678 044a 002B     		cmp	r3, #0
 679 044c 1CD0     		beq	.L47
 242:./Core/Src/fsm_tuning.c **** 			counter++;
 680              		.loc 1 242 11
 681 044e 104B     		ldr	r3, .L51
 682 0450 1B68     		ldr	r3, [r3]
 683 0452 0133     		adds	r3, r3, #1
 684 0454 0E4A     		ldr	r2, .L51
 685 0456 1360     		str	r3, [r2]
 243:./Core/Src/fsm_tuning.c **** 			if(counter == max_red1){
 686              		.loc 1 243 15
 687 0458 0D4B     		ldr	r3, .L51
 688 045a 1A68     		ldr	r2, [r3]
 689 045c 0D4B     		ldr	r3, .L51+4
 690 045e 1B68     		ldr	r3, [r3]
 691              		.loc 1 243 6
 692 0460 9A42     		cmp	r2, r3
 693 0462 02D1     		bne	.L40
 244:./Core/Src/fsm_tuning.c **** 				counter = 1;
 694              		.loc 1 244 13
 695 0464 0A4B     		ldr	r3, .L51
 696 0466 0122     		movs	r2, #1
 697 0468 1A60     		str	r2, [r3]
 698              	.L40:
 245:./Core/Src/fsm_tuning.c **** 			}
 246:./Core/Src/fsm_tuning.c **** 			displayCounter();
 699              		.loc 1 246 4
 700 046a FFF7FEFF 		bl	displayCounter
 247:./Core/Src/fsm_tuning.c **** 		}
 248:./Core/Src/fsm_tuning.c **** 		break;
 701              		.loc 1 248 3
 702 046e 0BE0     		b	.L47
 703              	.L41:
 249:./Core/Src/fsm_tuning.c **** 	default:
 250:./Core/Src/fsm_tuning.c **** 		break;
 704              		.loc 1 250 3
 705 0470 00BF     		nop
 706 0472 0AE0     		b	.L48
 707              	.L42:
  47:./Core/Src/fsm_tuning.c **** 	case TUNING_RED2:
 708              		.loc 1 47 3
 709 0474 00BF     		nop
 710 0476 08E0     		b	.L48
 711              	.L43:
  87:./Core/Src/fsm_tuning.c **** 	case TUNING_GREEN1:
 712              		.loc 1 87 3
 713 0478 00BF     		nop
 714 047a 06E0     		b	.L48
 715              	.L44:
 128:./Core/Src/fsm_tuning.c **** 	case TUNING_GREEN2:
 716              		.loc 1 128 3
 717 047c 00BF     		nop
ARM GAS  C:\Users\ULTIMA~1\AppData\Local\Temp\ccqGTINA.s 			page 18


 718 047e 04E0     		b	.L48
 719              	.L45:
 169:./Core/Src/fsm_tuning.c **** 	case TUNING_YELLOW1:
 720              		.loc 1 169 3
 721 0480 00BF     		nop
 722 0482 02E0     		b	.L48
 723              	.L46:
 208:./Core/Src/fsm_tuning.c **** 	case TUNING_YELLOW2:
 724              		.loc 1 208 3
 725 0484 00BF     		nop
 726 0486 00E0     		b	.L48
 727              	.L47:
 248:./Core/Src/fsm_tuning.c **** 	default:
 728              		.loc 1 248 3
 729 0488 00BF     		nop
 730              	.L12:
 731              	.L48:
 251:./Core/Src/fsm_tuning.c **** 	}
 252:./Core/Src/fsm_tuning.c **** }
 732              		.loc 1 252 1
 733 048a 00BF     		nop
 734 048c 80BD     		pop	{r7, pc}
 735              	.L52:
 736 048e 00BF     		.align	2
 737              	.L51:
 738 0490 00000000 		.word	counter
 739 0494 00000000 		.word	max_red1
 740 0498 00000000 		.word	timer1_flag
 741 049c 00000000 		.word	status
 742 04a0 00000000 		.word	max_yellow2
 743 04a4 00000000 		.word	max_red2
 744              		.cfi_endproc
 745              	.LFE68:
 747              		.text
 748              	.Letext0:
 749              		.file 2 "Core/Inc/timer.h"
 750              		.file 3 "Core/Inc/global.h"
 751              		.file 4 "Core/Inc/traffic.h"
 752              		.file 5 "Core/Inc/button.h"
ARM GAS  C:\Users\ULTIMA~1\AppData\Local\Temp\ccqGTINA.s 			page 19


DEFINED SYMBOLS
                            *ABS*:0000000000000000 fsm_tuning.c
C:\Users\ULTIMA~1\AppData\Local\Temp\ccqGTINA.s:18     .text.fsm_tuning_run:0000000000000000 $t
C:\Users\ULTIMA~1\AppData\Local\Temp\ccqGTINA.s:24     .text.fsm_tuning_run:0000000000000000 fsm_tuning_run
C:\Users\ULTIMA~1\AppData\Local\Temp\ccqGTINA.s:47     .text.fsm_tuning_run:0000000000000018 $d
C:\Users\ULTIMA~1\AppData\Local\Temp\ccqGTINA.s:53     .text.fsm_tuning_run:0000000000000030 $t
C:\Users\ULTIMA~1\AppData\Local\Temp\ccqGTINA.s:450    .text.fsm_tuning_run:00000000000002c0 $d
C:\Users\ULTIMA~1\AppData\Local\Temp\ccqGTINA.s:460    .text.fsm_tuning_run:00000000000002e0 $t
C:\Users\ULTIMA~1\AppData\Local\Temp\ccqGTINA.s:738    .text.fsm_tuning_run:0000000000000490 $d
                           .group:0000000000000000 wm4.0.cb5f01749778df26340c4505df3d34d0
                           .group:0000000000000000 wm4.stm32f1xx_hal_conf.h.21.98635006afa9a018cfa5e0632ed4968b
                           .group:0000000000000000 wm4.stm32f1xx.h.39.208bb8a61c892b7c37d899c49a031330
                           .group:0000000000000000 wm4.stm32f103xb.h.38.ec967d5ad9d3269cb0788eebda048e38
                           .group:0000000000000000 wm4._newlib_version.h.4.bfdf54b0af045d4a71376ae00f63a22c
                           .group:0000000000000000 wm4.features.h.33.318b64d71e0957639cfb30f1db1f7ec8
                           .group:0000000000000000 wm4._default_types.h.15.247e5cd201eca3442cbf5404108c4935
                           .group:0000000000000000 wm4._intsup.h.10.48bafbb683905c4daa4565a85aeeb264
                           .group:0000000000000000 wm4._stdint.h.10.c24fa3af3bc1706662bb5593a907e841
                           .group:0000000000000000 wm4.stdint.h.23.d53047a68f4a85177f80b422d52785ed
                           .group:0000000000000000 wm4.cmsis_version.h.32.4d5822004c01a829a975260e854b5f8e
                           .group:0000000000000000 wm4.core_cm3.h.66.fc46cac19810db8f98d67da7ef88f42c
                           .group:0000000000000000 wm4.cmsis_gcc.h.26.4f5798e999d5690b80e6ded3ecc94b37
                           .group:0000000000000000 wm4.core_cm3.h.127.f4474120f1a7524deb56f9d74ff175da
                           .group:0000000000000000 wm4.stm32f103xb.h.573.10249aa7473ca93be896fed94046a725
                           .group:0000000000000000 wm4.stm32f1xx.h.162.96b09079a093c34dbd7f0b85cbd0ddee
                           .group:0000000000000000 wm4.stm32_hal_legacy.h.23.91ba5b544a4c2be2620a1e7ff0049e10
                           .group:0000000000000000 wm4.stddef.h.39.144cf5ddcd53cbfdac30259dc1a6c87f
                           .group:0000000000000000 wm4.stm32f1xx_hal_def.h.57.18d01ce1aa74e9fb44dbf16f821a574a
                           .group:0000000000000000 wm4.stm32f1xx_hal_rcc.h.95.21591bbc513aaa813c0b8640c3b32517
                           .group:0000000000000000 wm4.stm32f1xx_hal_rcc_ex.h.22.8763f99bc1e3e2dcf0febe9161d81b37
                           .group:0000000000000000 wm4.stm32f1xx_hal_rcc.h.1202.f8e5f9e0cf4eef7840facf5396029056
                           .group:0000000000000000 wm4.stm32f1xx_hal_gpio.h.22.fa638d688dcc57ca806fe6a7831b0d04
                           .group:0000000000000000 wm4.stm32f1xx_hal_gpio_ex.h.22.51a50ef3512cd78017ce666a32d364bf
                           .group:0000000000000000 wm4.stm32f1xx_hal_gpio.h.263.f5ebf2f545ade59412ab9261c8e35dc4
                           .group:0000000000000000 wm4.stm32f1xx_hal_exti.h.22.e26491d042c8079c3ca67eca341af862
                           .group:0000000000000000 wm4.stm32f1xx_hal_dma.h.22.3c14338534886827bf3aeaa2a7f412a1
                           .group:0000000000000000 wm4.stm32f1xx_hal_dma_ex.h.22.001ac4d7f81ccbdcae49bd65c13858c8
                           .group:0000000000000000 wm4.stm32f1xx_hal_dma.h.409.cafcd2cfe701091535636be537c18293
                           .group:0000000000000000 wm4.stm32f1xx_hal_cortex.h.22.b5f4174bb6a50d95405567b8f50e0900
                           .group:0000000000000000 wm4.stm32f1xx_hal_flash.h.22.5cea9a7210e6315b41724b47b5fdf203
                           .group:0000000000000000 wm4.stm32f1xx_hal_flash_ex.h.22.d4e19c21f2a86fa2f8ec2c2d5f1ab2af
                           .group:0000000000000000 wm4.stm32f1xx_hal_pwr.h.22.3438c476faafc3240bf146f143df3fcd
                           .group:0000000000000000 wm4.stm32f1xx_hal_tim.h.22.a16e206564e97dbace9faae59a0d6008
                           .group:0000000000000000 wm4.stm32f1xx_hal_uart.h.22.5f7992e497faa36aa98f09f7214f4dbb
                           .group:0000000000000000 wm4.stm32f1xx_hal.h.88.91065c0692bed6019c34f1e9c00589fd
                           .group:0000000000000000 wm4.newlib.h.8.7cb3972cd43265932d4782d5eb589854
                           .group:0000000000000000 wm4.ieeefp.h.77.25247dc27dbe3b23bfe98c2dc18f6ac5
                           .group:0000000000000000 wm4.config.h.224.c701144a7b0518c6ee9b9b5465b79f81
                           .group:0000000000000000 wm4._ansi.h.31.de524f58584151836e90d8620a16f8e8
                           .group:0000000000000000 wm4.stdio.h.31.7c0e28c411445f3f9c5b11accf882760
                           .group:0000000000000000 wm4.stddef.h.155.ba788add86a0e365f264484f110c3c29
                           .group:0000000000000000 wm4.cdefs.h.49.39045112216f6a021dbdffe3bf5accce
                           .group:0000000000000000 wm4.stdarg.h.34.3a23a216c0c293b3d2ea2e89281481e6
                           .group:0000000000000000 wm4._types.h.20.dd0d04dca3800a0d2a6129b87f3adbb2
                           .group:0000000000000000 wm4.stddef.h.155.3588ebfdd1e8c7ede80509bb9c3b8009
                           .group:0000000000000000 wm4._types.h.127.34941de1b2539d59d5cac00e0dd27a45
                           .group:0000000000000000 wm4.reent.h.17.e292bf8b0bec6c96e131a54347145a30
ARM GAS  C:\Users\ULTIMA~1\AppData\Local\Temp\ccqGTINA.s 			page 20


                           .group:0000000000000000 wm4.lock.h.2.1461d1fff82dffe8bfddc23307f6484f
                           .group:0000000000000000 wm4.reent.h.77.dcd6129ff07fe81bd5636db29abe53b2
                           .group:0000000000000000 wm4.types.h.40.8b6acba56cefbb11746718204edc8f5e
                           .group:0000000000000000 wm4._endian.h.31.65a10590763c3dde1ac4a7f66d7d4891
                           .group:0000000000000000 wm4.endian.h.9.49f3a4695c1b61e8a0808de3c4a106cb
                           .group:0000000000000000 wm4._timeval.h.32.bec3221fa7a9bb0bdde696c9c57e47d2
                           .group:0000000000000000 wm4.timespec.h.41.d855182eb0e690443ab8651bcedca6e1
                           .group:0000000000000000 wm4.select.h.19.40cd3f2bfc456b193b790c2754690ebf
                           .group:0000000000000000 wm4.types.h.51.5571ec98f267d17d3c670b7a3ba33afa
                           .group:0000000000000000 wm4.sched.h.22.c60982713a5c428609783c78f9c78d95
                           .group:0000000000000000 wm4._pthreadtypes.h.36.fcee9961c35163dde6267ef772ad1972
                           .group:0000000000000000 wm4.stdio.h.2.4aa87247282eca6c8f36f9de33d8df1a
                           .group:0000000000000000 wm4.stdio.h.81.932d0c162786b883f622b8d05c120c78
                           .group:0000000000000000 wm4.main.h.66.f6c32797044e6683294f2b743aea3471
                           .group:0000000000000000 wm4.button.h.9.c6366124cd589a43ad584300c9157129
                           .group:0000000000000000 wm4.global.h.11.2fb835f5a6e6029efdfc188ecbd44406

UNDEFINED SYMBOLS
setTimer1
toggleTraffic1Red
isButtonPressed
acceptTraffic1Red
displayCounter
setTraffic1Red
setTraffic2Green
clearTraffic1
clearTraffic2
toggleTraffic2Red
acceptTraffic2Red
setTraffic2Red
toggleTraffic1Green
acceptTraffic1Green
toggleTraffic2Green
acceptTraffic2Green
status
timer1_flag
max_red1
counter
max_red2
max_green1
max_green2
max_yellow1
toggleTraffic1Yellow
acceptTraffic1Yellow
toggleTraffic2Yellow
acceptTraffic2Yellow
max_yellow2
